
Memory Configuration

Name             Origin             Length             Attributes
ram              0x0000000000000000 0x00000000ffff0000 !x
rom              0x00000000ffff0000 0x0000000000010000 xr
*default*        0x0000000000000000 0xffffffffffffffff

Linker script and memory map

                0x0000000000060000                __EH_FRAME = 0x60000
                0x0000000000009000                __STACK_START_16 = 0x9000
                0x0000000000009fff                __STACK_END_16 = 0x9fff
                0x00000000000003ff                __STACK_SIZE_32 = ((__STACK_END_32 - __STACK_START_32) / 0x4)
                0x0000000000000000                __SYS_TABLES_VMA = 0x0
                0x0000000000010000                __FUNCTIONS_VMA = 0x10000
                0x00000000000b8000                __VGA_VMA = 0xb8000
                0x0000000000100000                __TECLADO_ISR_VMA = 0x100000
                0x0000000000200000                __DIGITS_TABLE = 0x200000
                0x0000000000202000                __KERNEL_32_VMA = 0x202000
                0x0000000000210000                __DATA_VMA = 0x210000
                0x0000000000300000                __TAREA_1_VMA = 0x300000
                0x000000002fff8000                __STACK_START_32 = 0x2fff8000
                0x000000002fff8fff                __STACK_END_32 = 0x2fff8fff
                0x00000000ffff0000                __INIT_16_VMA = 0xffff0000
                0x00000000ffff5000                __VGA_INIT_VMA = 0xffff5000
                0x00000000fffff800                __INIT_32_VMA = 0xfffff800
                0x00000000fffffc00                __FUNCTIONS_ROM_VMA = 0xfffffc00
                0x00000000fffffff0                __RESET_VMA = 0xfffffff0
                0x00000000ffff0000                __INIT_16_LMA = 0xffff0000
                0x00000000ffff1000                __DATA_LMA = 0xffff1000
                0x00000000ffff2000                __FUNCTIONS_LMA = 0xffff2000
                0x00000000ffff3000                __KERNEL_32_LMA = 0xffff3000
                0x00000000ffff4000                __TECLADO_ISR_LMA = 0xffff4000
                0x00000000ffff5000                __VGA_INIT_LMA = 0xffff5000
                0x00000000ffff6500                __TAREA_1_LMA = 0xffff6500
                0x00000000fffff800                __INIT_32_LMA = 0xfffff800
                0x00000000fffffc00                __FUNCTIONS_ROM_LMA = 0xfffffc00
                0x00000000fffffd00                __SYS_TABLES_LMA = 0xfffffd00
                0x00000000fffffff0                __RESET_LMA = 0xfffffff0

.sys_tables_32  0x0000000000000000      0x19c load address 0x00000000fffffd00
 *(.sys_tables)
 .sys_tables    0x0000000000000000      0x19c ./bin/sys_tables.elf
                0x0000000000000018                _gdtr_32
                0x0000000000000196                _idtr_32
                0x000000000000019c                __sys_tables_size = SIZEOF (.sys_tables_32)

.functions      0x0000000000010000      0x666 load address 0x00000000ffff2000
 *(.functions_c)
 .functions_c   0x0000000000010000      0x602 ./bin/functions.elf
                0x0000000000010000                __fast_memcpy
                0x000000000001003c                limpiar_buffer
                0x0000000000010086                determinar_tecla_presionada
                0x0000000000010147                escribir_buffer
                0x00000000000101b4                escribir_tabla_digitos
                0x00000000000102d3                leer_buffer
                0x000000000001033d                contador_handler
                0x0000000000010395                promedio_digitos_64
                0x0000000000010599                sumatoria_digitos_64
 *(.functions_asm)
 .functions_asm
                0x0000000000010602       0x64 ./bin/functions_asm.elf
                0x0000000000010602                init_pic
                0x000000000001062f                init_timer
                0x000000000001063e                init_teclado
                0x0000000000000666                __functions_size = SIZEOF (.functions)

.handlers       0x0000000000100000       0x84 load address 0x00000000ffff4000
 *(.teclado_and_ISR)
 .teclado_and_ISR
                0x0000000000100000       0x84 ./bin/handlers_32.elf
                0x0000000100000000                L_IRQ00_Handler
                0x000000010000001f                L_IRQ01_Handler
                0x0000000100000044                L_ISR00_Handler_DE
                0x000000010000004d                L_ISR02_Handler_NMI
                0x0000000100000050                L_ISR03_Handler_BP
                0x0000000100000053                L_ISR04_Handler_OF
                0x0000000100000056                L_ISR05_Handler_BR
                0x0000000100000059                L_ISR06_Handler_UD
                0x000000010000005f                L_ISR07_Handler_NM
                0x0000000100000062                L_ISR08_Handler_DF
                0x0000000100000065                L_ISR10_Handler_TS
                0x0000000100000068                L_ISR11_Handler_NP
                0x000000010000006b                L_ISR12_Handler_SS
                0x000000010000006e                L_ISR13_Handler_GP
                0x0000000100000072                L_ISR14_Handler_PF
                0x0000000100000078                L_ISR16_Handler_MF
                0x000000010000007b                L_ISR17_Handler_AC
                0x000000010000007e                L_ISR18_Handler_MC
                0x0000000100000081                L_ISR19_Handler_XM
                0x0000000000000084                __handlers_32_size = SIZEOF (.handlers)

.codigo_kernel32
                0x0000000000202000       0x1a load address 0x00000000ffff3000
 *(.kernel32)
 .kernel32      0x0000000000202000       0x1a ./bin/main.elf
                0x0000000000202000                kernel32_init
                0x000000000000001a                __codigo_kernel32_size = SIZEOF (.codigo_kernel32)

.data           0x0000000000210000       0x54 load address 0x00000000ffff1000
 *(.data)
 .data          0x0000000000210000       0x1d ./bin/main.elf
                0x0000000000210000                memoria_buffer_reservada
                0x0000000000210013                contador_timer
                0x0000000000210015                resultado_promedio
 .data          0x000000000021001d        0x0 ./bin/functions_rom.elf
 .data          0x000000000021001d        0x0 ./bin/functions.elf
 *(.rodata)
 *(.bss)
 .bss           0x000000000021001d        0x0 ./bin/functions_rom.elf
 *fill*         0x000000000021001d        0x3 
 .bss           0x0000000000210020       0x34 ./bin/functions.elf
                0x0000000000000054                __data_size = SIZEOF (.data)

.tarea_1        0x0000000000300000       0xef load address 0x00000000ffff6500
 *(.tarea_1)
 .tarea_1       0x0000000000300000       0xef ./bin/functions.elf
                0x0000000000300000                ejecutar_tarea_1
                0x00000000000000ef                __codigo_tarea_01_size = SIZEOF (.tarea_1)

.video_init     0x00000000ffff5000     0x1322
 *(.vga_init)
 .vga_init      0x00000000ffff5000     0x1322 ./bin/init_screen.elf
                0x00000000ffff60fc                init_screen

.codigo_init16  0x00000000ffff0000       0x69
 *(.ROM_init)
 .ROM_init      0x00000000ffff0000       0x69 ./bin/init16.elf
                0x00000000ffff0000                start16
                0x00000000ffff0031                return_init_screen

.codigo_init32  0x00000000fffff800      0x100
 *(.start32)
 .start32       0x00000000fffff800      0x100 ./bin/init32.elf
                0x00000000fffff800                start32_launcher

.functions_rom  0x00000000fffffc00       0x3c
 *(.functions_rom)
 .functions_rom
                0x00000000fffffc00       0x3c ./bin/functions_rom.elf
                0x00000000fffffc00                __fast_memcpy_rom
 *(.note.gnu.property)

.text           0x00000000fffffc3c        0x0
 .text          0x00000000fffffc3c        0x0 ./bin/functions_rom.elf
 .text          0x00000000fffffc3c        0x0 ./bin/functions.elf

.codigo_reset   0x00000000fffffff0       0x10
 *(.resetVector)
 .resetVector   0x00000000fffffff0       0x10 ./bin/reset.elf
                0x00000000fffffff0                reset
LOAD ./bin/init32.elf
LOAD ./bin/reset.elf
LOAD ./bin/init16.elf
LOAD ./bin/main.elf
LOAD ./bin/functions_asm.elf
LOAD ./bin/functions_rom.elf
LOAD ./bin/handlers_32.elf
LOAD ./bin/functions.elf
LOAD ./bin/sys_tables.elf
LOAD ./bin/init_screen.elf
OUTPUT(bin/mibios.bin binary)

.comment        0x0000000000000000       0x54
 .comment       0x0000000000000000       0x2a ./bin/functions_rom.elf
 .comment       0x000000000000002a       0x2a ./bin/functions.elf

.note.GNU-stack
                0x0000000000000000        0x0
 .note.GNU-stack
                0x0000000000000000        0x0 ./bin/functions_rom.elf
 .note.GNU-stack
                0x0000000000000000        0x0 ./bin/functions.elf
